target datalayout = "e-m:e-p270:32:32-p271:32:32-p272:64:64-i64:64-i128:128-f80:128-n8:16:32:64-S128"
target triple = "x86_64-pc-linux-gnu"

%struct.pointf_s = type { double, double }
%struct.anon = type { ptr, ptr, i32, i32, i32, i32, ptr, i64, i64, i64, i32, ptr, i32, i32, i32, i32, i32, ptr, i32, i32, ptr, ptr, i32, i64, i64, ptr, ptr, ptr, ptr, i32, ptr, ptr, ptr, i32, i32, ptr, i64, i64, i32, i32, ptr, ptr, i32, ptr }
%struct.GVJ_s = type { ptr, ptr, ptr, ptr, ptr, ptr, i32, ptr, ptr, ptr, ptr, i64, i64, ptr, i32, %struct.gvplugin_active_render_s, %struct.gvplugin_active_device_s, %struct.gvplugin_active_loadimage_t, ptr, %struct.pointf_s, i8, ptr, i32, ptr, i8, ptr, i32, i32, i32, %struct.point, %struct.point, %struct.point, %struct.point, %struct.point, i32, %struct.boxf, %struct.pointf_s, %struct.boxf, %struct.boxf, %struct.pointf_s, %struct.pointf_s, double, i32, %struct.pointf_s, %struct.boxf, %struct.pointf_s, %struct.pointf_s, i32, i32, %struct.box, %struct.box, %struct.pointf_s, %struct.pointf_s, %struct.pointf_s, i8, i8, i8, i8, i8, i8, %struct.pointf_s, %struct.pointf_s, ptr, ptr, ptr, ptr, ptr, ptr, i64, ptr }
%struct.gvplugin_active_render_s = type { ptr, i32, ptr, ptr }
%struct.gvplugin_active_device_s = type { ptr, i32, ptr, ptr }
%struct.gvplugin_active_loadimage_t = type { ptr, i32, ptr }
%struct.point = type { i32, i32 }
%struct.boxf = type { %struct.pointf_s, %struct.pointf_s }
%struct.box = type { %struct.point, %struct.point }
%struct.gvevent_key_binding_s = type { ptr, ptr }
%struct.Screen = type { ptr, ptr, i64, i32, i32, i32, i32, i32, ptr, i32, ptr, ptr, i64, i64, i64, i32, i32, i32, i32, i64 }

@stderr = external global ptr, align 8
@.str.2 = private unnamed_addr constant [33 x i8] c"Failed to open XLIB display: %s\0A\00", align 1
@.str.3 = private unnamed_addr constant [30 x i8] c"Failed to malloc %zu*KeyCode\0A\00", align 1
@.str.4 = private unnamed_addr constant [27 x i8] c"ERROR: No keysym for \22%s\22\0A\00", align 1

; Function Attrs: nounwind uwtable
define internal void @xlib_initialize(ptr noundef %0) #0 {
  %2 = alloca ptr, align 8
  %3 = alloca i64, align 8
  %4 = alloca ptr, align 8
  %5 = alloca ptr, align 8
  %6 = alloca i32, align 4
  %7 = alloca ptr, align 8
  %8 = alloca i32, align 4
  %9 = alloca i64, align 8
  store ptr %0, ptr %2, align 8, !tbaa !3
  call void @llvm.lifetime.start.p0(i64 8, ptr %3) #16
  call void @llvm.lifetime.start.p0(i64 8, ptr %4) #16
  call void @llvm.lifetime.start.p0(i64 8, ptr %5) #16
  store ptr null, ptr %5, align 8, !tbaa !8
  call void @llvm.lifetime.start.p0(i64 4, ptr %6) #16
  call void @llvm.lifetime.start.p0(i64 8, ptr %7) #16
  %10 = load ptr, ptr %5, align 8, !tbaa !8
  %11 = call ptr @XOpenDisplay(ptr noundef %10)
  store ptr %11, ptr %7, align 8, !tbaa !10
  %12 = load ptr, ptr %7, align 8, !tbaa !10
  %13 = icmp eq ptr %12, null
  br i1 %13, label %14, label %18

14:                                               ; preds = %1
  %15 = load ptr, ptr @stderr, align 8, !tbaa !12
  %16 = call ptr @XDisplayName(ptr noundef null)
  %17 = call i32 (ptr, ptr, ...) @fprintf(ptr noundef %15, ptr noundef @.str.2, ptr noundef %16) #16
  store i32 1, ptr %8, align 4
  br label %140

18:                                               ; preds = %1
  %19 = load ptr, ptr %7, align 8, !tbaa !10
  %20 = getelementptr inbounds nuw %struct.anon, ptr %19, i32 0, i32 33
  %21 = load i32, ptr %20, align 8, !tbaa !14
  store i32 %21, ptr %6, align 4, !tbaa !21
  %22 = load i32, ptr %6, align 4, !tbaa !21
  %23 = load ptr, ptr %2, align 8, !tbaa !3
  %24 = getelementptr inbounds nuw %struct.GVJ_s, ptr %23, i32 0, i32 22
  store i32 %22, ptr %24, align 8, !tbaa !22
  %25 = load ptr, ptr %2, align 8, !tbaa !3
  %26 = getelementptr inbounds nuw %struct.GVJ_s, ptr %25, i32 0, i32 68
  %27 = load i64, ptr %26, align 8, !tbaa !41
  %28 = mul i64 %27, 1
  %29 = call noalias ptr @malloc(i64 noundef %28) #17
  store ptr %29, ptr %4, align 8, !tbaa !8
  %30 = load ptr, ptr %2, align 8, !tbaa !3
  %31 = getelementptr inbounds nuw %struct.GVJ_s, ptr %30, i32 0, i32 68
  %32 = load i64, ptr %31, align 8, !tbaa !41
  %33 = icmp ugt i64 %32, 0
  br i1 %33, label %34, label %45

34:                                               ; preds = %18
  %35 = load ptr, ptr %4, align 8, !tbaa !8
  %36 = icmp eq ptr %35, null
  br i1 %36, label %37, label %45

37:                                               ; preds = %34
  %38 = load ptr, ptr @stderr, align 8, !tbaa !12
  %39 = load ptr, ptr %2, align 8, !tbaa !3
  %40 = getelementptr inbounds nuw %struct.GVJ_s, ptr %39, i32 0, i32 68
  %41 = load i64, ptr %40, align 8, !tbaa !41
  %42 = call i32 (ptr, ptr, ...) @fprintf(ptr noundef %38, ptr noundef @.str.3, i64 noundef %41) #16
  %43 = load ptr, ptr %7, align 8, !tbaa !10
  %44 = call i32 @XCloseDisplay(ptr noundef %43)
  store i32 1, ptr %8, align 4
  br label %140

45:                                               ; preds = %34, %18
  call void @llvm.lifetime.start.p0(i64 8, ptr %9) #16
  store i64 0, ptr %9, align 8, !tbaa !42
  br label %46

46:                                               ; preds = %82, %45
  %47 = load i64, ptr %9, align 8, !tbaa !42
  %48 = load ptr, ptr %2, align 8, !tbaa !3
  %49 = getelementptr inbounds nuw %struct.GVJ_s, ptr %48, i32 0, i32 68
  %50 = load i64, ptr %49, align 8, !tbaa !41
  %51 = icmp ult i64 %47, %50
  br i1 %51, label %53, label %52

52:                                               ; preds = %46
  store i32 2, ptr %8, align 4
  call void @llvm.lifetime.end.p0(i64 8, ptr %9) #16
  br label %85

53:                                               ; preds = %46
  %54 = load ptr, ptr %2, align 8, !tbaa !3
  %55 = getelementptr inbounds nuw %struct.GVJ_s, ptr %54, i32 0, i32 67
  %56 = load ptr, ptr %55, align 8, !tbaa !43
  %57 = load i64, ptr %9, align 8, !tbaa !42
  %58 = getelementptr inbounds nuw %struct.gvevent_key_binding_s, ptr %56, i64 %57
  %59 = getelementptr inbounds nuw %struct.gvevent_key_binding_s, ptr %58, i32 0, i32 0
  %60 = load ptr, ptr %59, align 8, !tbaa !44
  %61 = call i64 @XStringToKeysym(ptr noundef %60)
  store i64 %61, ptr %3, align 8, !tbaa !42
  %62 = load i64, ptr %3, align 8, !tbaa !42
  %63 = icmp eq i64 %62, 0
  br i1 %63, label %64, label %74

64:                                               ; preds = %53
  %65 = load ptr, ptr @stderr, align 8, !tbaa !12
  %66 = load ptr, ptr %2, align 8, !tbaa !3
  %67 = getelementptr inbounds nuw %struct.GVJ_s, ptr %66, i32 0, i32 67
  %68 = load ptr, ptr %67, align 8, !tbaa !43
  %69 = load i64, ptr %9, align 8, !tbaa !42
  %70 = getelementptr inbounds nuw %struct.gvevent_key_binding_s, ptr %68, i64 %69
  %71 = getelementptr inbounds nuw %struct.gvevent_key_binding_s, ptr %70, i32 0, i32 0
  %72 = load ptr, ptr %71, align 8, !tbaa !44
  %73 = call i32 (ptr, ptr, ...) @fprintf(ptr noundef %65, ptr noundef @.str.4, ptr noundef %72) #16
  br label %81

74:                                               ; preds = %53
  %75 = load ptr, ptr %7, align 8, !tbaa !10
  %76 = load i64, ptr %3, align 8, !tbaa !42
  %77 = call zeroext i8 @XKeysymToKeycode(ptr noundef %75, i64 noundef %76)
  %78 = load ptr, ptr %4, align 8, !tbaa !8
  %79 = load i64, ptr %9, align 8, !tbaa !42
  %80 = getelementptr inbounds nuw i8, ptr %78, i64 %79
  store i8 %77, ptr %80, align 1, !tbaa !46
  br label %81

81:                                               ; preds = %74, %64
  br label %82

82:                                               ; preds = %81
  %83 = load i64, ptr %9, align 8, !tbaa !42
  %84 = add i64 %83, 1
  store i64 %84, ptr %9, align 8, !tbaa !42
  br label %46, !llvm.loop !47

85:                                               ; preds = %52
  %86 = load ptr, ptr %4, align 8, !tbaa !8
  %87 = load ptr, ptr %2, align 8, !tbaa !3
  %88 = getelementptr inbounds nuw %struct.GVJ_s, ptr %87, i32 0, i32 69
  store ptr %86, ptr %88, align 8, !tbaa !49
  %89 = load ptr, ptr %7, align 8, !tbaa !10
  %90 = getelementptr inbounds nuw %struct.anon, ptr %89, i32 0, i32 35
  %91 = load ptr, ptr %90, align 8, !tbaa !50
  %92 = load i32, ptr %6, align 4, !tbaa !21
  %93 = sext i32 %92 to i64
  %94 = getelementptr inbounds %struct.Screen, ptr %91, i64 %93
  %95 = getelementptr inbounds nuw %struct.Screen, ptr %94, i32 0, i32 3
  %96 = load i32, ptr %95, align 8, !tbaa !51
  %97 = sitofp i32 %96 to double
  %98 = fmul double %97, 2.540000e+01
  %99 = load ptr, ptr %7, align 8, !tbaa !10
  %100 = getelementptr inbounds nuw %struct.anon, ptr %99, i32 0, i32 35
  %101 = load ptr, ptr %100, align 8, !tbaa !50
  %102 = load i32, ptr %6, align 4, !tbaa !21
  %103 = sext i32 %102 to i64
  %104 = getelementptr inbounds %struct.Screen, ptr %101, i64 %103
  %105 = getelementptr inbounds nuw %struct.Screen, ptr %104, i32 0, i32 5
  %106 = load i32, ptr %105, align 8, !tbaa !54
  %107 = sitofp i32 %106 to double
  %108 = fdiv double %98, %107
  %109 = load ptr, ptr %2, align 8, !tbaa !3
  %110 = getelementptr inbounds nuw %struct.GVJ_s, ptr %109, i32 0, i32 19
  %111 = getelementptr inbounds nuw %struct.pointf_s, ptr %110, i32 0, i32 0
  store double %108, ptr %111, align 8, !tbaa !55
  %112 = load ptr, ptr %7, align 8, !tbaa !10
  %113 = getelementptr inbounds nuw %struct.anon, ptr %112, i32 0, i32 35
  %114 = load ptr, ptr %113, align 8, !tbaa !50
  %115 = load i32, ptr %6, align 4, !tbaa !21
  %116 = sext i32 %115 to i64
  %117 = getelementptr inbounds %struct.Screen, ptr %114, i64 %116
  %118 = getelementptr inbounds nuw %struct.Screen, ptr %117, i32 0, i32 4
  %119 = load i32, ptr %118, align 4, !tbaa !56
  %120 = sitofp i32 %119 to double
  %121 = fmul double %120, 2.540000e+01
  %122 = load ptr, ptr %7, align 8, !tbaa !10
  %123 = getelementptr inbounds nuw %struct.anon, ptr %122, i32 0, i32 35
  %124 = load ptr, ptr %123, align 8, !tbaa !50
  %125 = load i32, ptr %6, align 4, !tbaa !21
  %126 = sext i32 %125 to i64
  %127 = getelementptr inbounds %struct.Screen, ptr %124, i64 %126
  %128 = getelementptr inbounds nuw %struct.Screen, ptr %127, i32 0, i32 6
  %129 = load i32, ptr %128, align 4, !tbaa !57
  %130 = sitofp i32 %129 to double
  %131 = fdiv double %121, %130
  %132 = load ptr, ptr %2, align 8, !tbaa !3
  %133 = getelementptr inbounds nuw %struct.GVJ_s, ptr %132, i32 0, i32 19
  %134 = getelementptr inbounds nuw %struct.pointf_s, ptr %133, i32 0, i32 1
  store double %131, ptr %134, align 8, !tbaa !58
  %135 = load ptr, ptr %2, align 8, !tbaa !3
  %136 = getelementptr inbounds nuw %struct.GVJ_s, ptr %135, i32 0, i32 20
  store i8 1, ptr %136, align 8, !tbaa !59
  %137 = load ptr, ptr %7, align 8, !tbaa !10
  %138 = load ptr, ptr %2, align 8, !tbaa !3
  %139 = getelementptr inbounds nuw %struct.GVJ_s, ptr %138, i32 0, i32 21
  store ptr %137, ptr %139, align 8, !tbaa !60
  store i32 0, ptr %8, align 4
  br label %140

140:                                              ; preds = %85, %37, %14
  call void @llvm.lifetime.end.p0(i64 8, ptr %7) #16
  call void @llvm.lifetime.end.p0(i64 4, ptr %6) #16
  call void @llvm.lifetime.end.p0(i64 8, ptr %5) #16
  call void @llvm.lifetime.end.p0(i64 8, ptr %4) #16
  call void @llvm.lifetime.end.p0(i64 8, ptr %3) #16
  %141 = load i32, ptr %8, align 4
  switch i32 %141, label %143 [
    i32 0, label %142
    i32 1, label %142
  ]

142:                                              ; preds = %140, %140
  ret void

143:                                              ; preds = %140
  unreachable
}