; Function Attrs: nounwind uwtable
define internal void @xlib_initialize(ptr noundef captures(none) %0) #0 {
  %2 = tail call ptr @XOpenDisplay(ptr noundef null) #21
  %3 = icmp eq ptr %2, null
  br i1 %3, label %4, label %8

4:                                                ; preds = %1
  %5 = load ptr, ptr @stderr, align 8, !tbaa !3
  %6 = tail call ptr @XDisplayName(ptr noundef null) #21
  %7 = tail call i32 (ptr, ptr, ...) @fprintf(ptr noundef %5, ptr noundef nonnull @.str.2, ptr noundef %6) #22
  br label %66

8:                                                ; preds = %1
  %9 = getelementptr inbounds nuw i8, ptr %2, i64 224
  %10 = load i32, ptr %9, align 8, !tbaa !8
  %11 = getelementptr inbounds nuw i8, ptr %0, i64 248
  store i32 %10, ptr %11, align 8, !tbaa !16
  %12 = getelementptr inbounds nuw i8, ptr %0, i64 752
  %13 = load i64, ptr %12, align 8, !tbaa !36
  %14 = tail call noalias ptr @malloc(i64 noundef %13) #23
  %15 = icmp ne i64 %13, 0
  %16 = icmp eq ptr %14, null
  %or.cond = and i1 %15, %16
  br i1 %or.cond, label %18, label %.preheader

.preheader:                                       ; preds = %8
  %.not = icmp eq i64 %13, 0
  br i1 %.not, label %._crit_edge, label %.lr.ph

.lr.ph:                                           ; preds = %.preheader
  %17 = getelementptr inbounds nuw i8, ptr %0, i64 744
  br label %47

18:                                               ; preds = %8
  %19 = load ptr, ptr @stderr, align 8, !tbaa !3
  %20 = tail call i32 (ptr, ptr, ...) @fprintf(ptr noundef %19, ptr noundef nonnull @.str.3, i64 noundef %13) #22
  %21 = tail call i32 @XCloseDisplay(ptr noundef nonnull %2) #21
  br label %66

._crit_edge:                                      ; preds = %62, %.preheader
  %22 = getelementptr inbounds nuw i8, ptr %0, i64 760
  store ptr %14, ptr %22, align 8, !tbaa !37
  %23 = getelementptr inbounds nuw i8, ptr %2, i64 232
  %24 = load ptr, ptr %23, align 8, !tbaa !38
  %25 = sext i32 %10 to i64
  %26 = getelementptr inbounds %struct.Screen, ptr %24, i64 %25
  %27 = getelementptr inbounds nuw i8, ptr %26, i64 24
  %28 = load i32, ptr %27, align 8, !tbaa !39
  %29 = sitofp i32 %28 to double
  %30 = fmul double %29, 2.540000e+01
  %31 = getelementptr inbounds nuw i8, ptr %26, i64 32
  %32 = load i32, ptr %31, align 8, !tbaa !43
  %33 = sitofp i32 %32 to double
  %34 = fdiv double %30, %33
  %35 = getelementptr inbounds nuw i8, ptr %0, i64 216
  store double %34, ptr %35, align 8, !tbaa !44
  %36 = getelementptr inbounds nuw i8, ptr %26, i64 28
  %37 = load i32, ptr %36, align 4, !tbaa !45
  %38 = sitofp i32 %37 to double
  %39 = fmul double %38, 2.540000e+01
  %40 = getelementptr inbounds nuw i8, ptr %26, i64 36
  %41 = load i32, ptr %40, align 4, !tbaa !46
  %42 = sitofp i32 %41 to double
  %43 = fdiv double %39, %42
  %44 = getelementptr inbounds nuw i8, ptr %0, i64 224
  store double %43, ptr %44, align 8, !tbaa !47
  %45 = getelementptr inbounds nuw i8, ptr %0, i64 232
  store i8 1, ptr %45, align 8, !tbaa !48
  %46 = getelementptr inbounds nuw i8, ptr %0, i64 240
  store ptr %2, ptr %46, align 8, !tbaa !49
  br label %66

47:                                               ; preds = %.lr.ph, %62
  %.040 = phi i64 [ 0, %.lr.ph ], [ %63, %62 ]
  %48 = load ptr, ptr %17, align 8, !tbaa !50
  %49 = getelementptr inbounds nuw %struct.gvevent_key_binding_s, ptr %48, i64 %.040
  %50 = load ptr, ptr %49, align 8, !tbaa !51
  %51 = tail call i64 @XStringToKeysym(ptr noundef %50) #21
  %52 = icmp eq i64 %51, 0
  br i1 %52, label %53, label %59

53:                                               ; preds = %47
  %54 = load ptr, ptr @stderr, align 8, !tbaa !3
  %55 = load ptr, ptr %17, align 8, !tbaa !50
  %56 = getelementptr inbounds nuw %struct.gvevent_key_binding_s, ptr %55, i64 %.040
  %57 = load ptr, ptr %56, align 8, !tbaa !51
  %58 = tail call i32 (ptr, ptr, ...) @fprintf(ptr noundef %54, ptr noundef nonnull @.str.4, ptr noundef %57) #22
  br label %62

59:                                               ; preds = %47
  %60 = tail call zeroext i8 @XKeysymToKeycode(ptr noundef nonnull %2, i64 noundef %51) #21
  %61 = getelementptr inbounds nuw i8, ptr %14, i64 %.040
  store i8 %60, ptr %61, align 1, !tbaa !53
  br label %62

62:                                               ; preds = %53, %59
  %63 = add nuw i64 %.040, 1
  %64 = load i64, ptr %12, align 8, !tbaa !36
  %65 = icmp ult i64 %63, %64
  br i1 %65, label %47, label %._crit_edge, !llvm.loop !54

66:                                               ; preds = %._crit_edge, %18, %4
  ret void
}